; Function Attrs: mustprogress null_pointer_is_valid sspstrong uwtable
define void @_ZN22LayoutPreferencesFrame31on_pane1NoneRadioButton_toggledEb(ptr noundef readonly align 8 captures(none) dereferenceable_or_null(136) %0, i1 noundef zeroext %1) local_unnamed_addr #0 align 2 {
  br i1 %1, label %3, label %7

3:                                                ; preds = %2
  %4 = getelementptr inbounds nuw i8, ptr %0, i64 56
  %5 = load ptr, ptr %4, align 8
  %6 = tail call i32 @prefs_set_enum_value(ptr noundef %5, i32 noundef 0, i32 noundef 1)
  br label %7

7:                                                ; preds = %2, %3
  ret void
}